target datalayout = "e-m:e-p270:32:32-p271:32:32-p272:64:64-i64:64-i128:128-f80:128-n8:16:32:64-S128"
target triple = "x86_64-pc-linux-gnu"

%struct.enum_val_t = type { ptr, ptr, i32 }

; Function Attrs: null_pointer_is_valid sspstrong uwtable
define internal i32 @find_val_for_string(ptr noundef %0, ptr noundef %1, i32 noundef %2) #1 {
  %4 = alloca i32, align 4
  %5 = alloca ptr, align 8
  %6 = alloca ptr, align 8
  %7 = alloca i32, align 4
  %8 = alloca i32, align 4
  %9 = alloca i32, align 4
  store ptr %0, ptr %5, align 8
  store ptr %1, ptr %6, align 8
  store i32 %2, ptr %7, align 4
  call void @llvm.lifetime.start.p0(i64 4, ptr %8) #17
  store i32 0, ptr %8, align 4
  br label %10

10:                                               ; preds = %36, %3
  %11 = load ptr, ptr %6, align 8
  %12 = load i32, ptr %8, align 4
  %13 = sext i32 %12 to i64
  %14 = getelementptr %struct.enum_val_t, ptr %11, i64 %13
  %15 = getelementptr inbounds nuw %struct.enum_val_t, ptr %14, i32 0, i32 0
  %16 = load ptr, ptr %15, align 8
  %17 = icmp ne ptr %16, null
  br i1 %17, label %18, label %39

18:                                               ; preds = %10
  %19 = load ptr, ptr %5, align 8
  %20 = load ptr, ptr %6, align 8
  %21 = load i32, ptr %8, align 4
  %22 = sext i32 %21 to i64
  %23 = getelementptr %struct.enum_val_t, ptr %20, i64 %22
  %24 = getelementptr inbounds nuw %struct.enum_val_t, ptr %23, i32 0, i32 0
  %25 = load ptr, ptr %24, align 8
  %26 = call i32 @g_ascii_strcasecmp(ptr noundef %19, ptr noundef %25)
  %27 = icmp eq i32 %26, 0
  br i1 %27, label %28, label %35

28:                                               ; preds = %18
  %29 = load ptr, ptr %6, align 8
  %30 = load i32, ptr %8, align 4
  %31 = sext i32 %30 to i64
  %32 = getelementptr %struct.enum_val_t, ptr %29, i64 %31
  %33 = getelementptr inbounds nuw %struct.enum_val_t, ptr %32, i32 0, i32 2
  %34 = load i32, ptr %33, align 8
  store i32 %34, ptr %4, align 4
  store i32 1, ptr %9, align 4
  br label %71

35:                                               ; preds = %18
  br label %36

36:                                               ; preds = %35
  %37 = load i32, ptr %8, align 4
  %38 = add i32 %37, 1
  store i32 %38, ptr %8, align 4
  br label %10, !llvm.loop !16

39:                                               ; preds = %10
  store i32 0, ptr %8, align 4
  br label %40

40:                                               ; preds = %66, %39
  %41 = load ptr, ptr %6, align 8
  %42 = load i32, ptr %8, align 4
  %43 = sext i32 %42 to i64
  %44 = getelementptr %struct.enum_val_t, ptr %41, i64 %43
  %45 = getelementptr inbounds nuw %struct.enum_val_t, ptr %44, i32 0, i32 0
  %46 = load ptr, ptr %45, align 8
  %47 = icmp ne ptr %46, null
  br i1 %47, label %48, label %69

48:                                               ; preds = %40
  %49 = load ptr, ptr %5, align 8
  %50 = load ptr, ptr %6, align 8
  %51 = load i32, ptr %8, align 4
  %52 = sext i32 %51 to i64
  %53 = getelementptr %struct.enum_val_t, ptr %50, i64 %52
  %54 = getelementptr inbounds nuw %struct.enum_val_t, ptr %53, i32 0, i32 1
  %55 = load ptr, ptr %54, align 8
  %56 = call i32 @g_ascii_strcasecmp(ptr noundef %49, ptr noundef %55)
  %57 = icmp eq i32 %56, 0
  br i1 %57, label %58, label %65

58:                                               ; preds = %48
  %59 = load ptr, ptr %6, align 8
  %60 = load i32, ptr %8, align 4
  %61 = sext i32 %60 to i64
  %62 = getelementptr %struct.enum_val_t, ptr %59, i64 %61
  %63 = getelementptr inbounds nuw %struct.enum_val_t, ptr %62, i32 0, i32 2
  %64 = load i32, ptr %63, align 8
  store i32 %64, ptr %4, align 4
  store i32 1, ptr %9, align 4
  br label %71

65:                                               ; preds = %48
  br label %66

66:                                               ; preds = %65
  %67 = load i32, ptr %8, align 4
  %68 = add i32 %67, 1
  store i32 %68, ptr %8, align 4
  br label %40, !llvm.loop !17

69:                                               ; preds = %40
  %70 = load i32, ptr %7, align 4
  store i32 %70, ptr %4, align 4
  store i32 1, ptr %9, align 4
  br label %71

71:                                               ; preds = %69, %58, %28
  call void @llvm.lifetime.end.p0(i64 4, ptr %8) #17
  %72 = load i32, ptr %4, align 4
  ret i32 %72
}