; Function Attrs: null_pointer_is_valid sspstrong uwtable
define internal fastcc i32 @find_val_for_string(ptr noundef %0, ptr noundef readonly captures(none) %1, i32 noundef %2) unnamed_addr #1 {
  %4 = load ptr, ptr %1, align 8
  %.not22 = icmp eq ptr %4, null
  br i1 %.not22, label %.loopexit, label %.lr.ph.preheader

.lr.ph.preheader:                                 ; preds = %3
  %5 = tail call i32 @g_ascii_strcasecmp(ptr noundef %0, ptr noundef nonnull %4)
  %6 = icmp eq i32 %5, 0
  br i1 %6, label %.loopexit.sink.split, label %.lr.ph39

.lr.ph39:                                         ; preds = %.lr.ph.preheader, %.lr.ph
  %.02338 = phi i32 [ %7, %.lr.ph ], [ 0, %.lr.ph.preheader ]
  %7 = add i32 %.02338, 1
  %8 = sext i32 %7 to i64
  %9 = getelementptr %struct.enum_val_t, ptr %1, i64 %8
  %10 = load ptr, ptr %9, align 8
  %.not = icmp eq ptr %10, null
  br i1 %.not, label %.preheader, label %.lr.ph, !llvm.loop !19

.preheader:                                       ; preds = %.lr.ph39
  %.pre = load ptr, ptr %1, align 8
  %11 = icmp eq ptr %.pre, null
  br i1 %11, label %.loopexit, label %.lr.ph26

.lr.ph:                                           ; preds = %.lr.ph39
  %12 = tail call i32 @g_ascii_strcasecmp(ptr noundef %0, ptr noundef nonnull %10)
  %13 = icmp eq i32 %12, 0
  br i1 %13, label %.loopexit.sink.split, label %.lr.ph39, !llvm.loop !19

14:                                               ; preds = %.lr.ph26
  %15 = add i32 %.125, 1
  %16 = sext i32 %15 to i64
  %17 = getelementptr %struct.enum_val_t, ptr %1, i64 %16
  %18 = load ptr, ptr %17, align 8
  %.not19 = icmp eq ptr %18, null
  br i1 %.not19, label %.loopexit, label %.lr.ph26, !llvm.loop !20

.lr.ph26:                                         ; preds = %.preheader, %14
  %19 = phi ptr [ %17, %14 ], [ %1, %.preheader ]
  %.125 = phi i32 [ %15, %14 ], [ 0, %.preheader ]
  %20 = getelementptr inbounds nuw i8, ptr %19, i64 8
  %21 = load ptr, ptr %20, align 8
  %22 = tail call i32 @g_ascii_strcasecmp(ptr noundef %0, ptr noundef %21)
  %23 = icmp eq i32 %22, 0
  br i1 %23, label %.loopexit.sink.split, label %14

.loopexit.sink.split:                             ; preds = %.lr.ph, %.lr.ph26, %.lr.ph.preheader
  %.lcssa.sink = phi ptr [ %1, %.lr.ph.preheader ], [ %19, %.lr.ph26 ], [ %9, %.lr.ph ]
  %24 = getelementptr inbounds nuw i8, ptr %.lcssa.sink, i64 16
  %25 = load i32, ptr %24, align 8
  br label %.loopexit

.loopexit:                                        ; preds = %14, %.loopexit.sink.split, %3, %.preheader
  %.017 = phi i32 [ %2, %.preheader ], [ %2, %3 ], [ %25, %.loopexit.sink.split ], [ %2, %14 ]
  ret i32 %.017
}